; ModuleID = 'source-C-CXX/12/788.c'
source_filename = "source-C-CXX/12/788.c"
target datalayout = "e-m:e-p270:32:32-p271:32:32-p272:64:64-i64:64-f80:128-n8:16:32:64-S128"
target triple = "x86_64-pc-linux-gnu"

@.str = private unnamed_addr constant [3 x i8] c"%d\00", align 1

; Function Attrs: nofree nounwind sspstrong uwtable
define dso_local i32 @main() local_unnamed_addr #0 {
  %1 = alloca [100 x i32], align 16
  %2 = bitcast [100 x i32]* %1 to i8*
  %3 = alloca i32, align 4
  %4 = alloca i32, align 4
  call void @llvm.lifetime.start.p0i8(i64 400, i8* nonnull %2) #6
  %5 = bitcast i32* %3 to i8*
  call void @llvm.lifetime.start.p0i8(i64 4, i8* nonnull %5) #6
  %6 = bitcast i32* %4 to i8*
  call void @llvm.lifetime.start.p0i8(i64 4, i8* nonnull %6) #6
  call void @llvm.memset.p0i8.i64(i8* noundef nonnull align 16 dereferenceable(400) %2, i8 0, i64 400, i1 false)
  %7 = call i32 (i8*, ...) @__isoc99_scanf(i8* getelementptr inbounds ([3 x i8], [3 x i8]* @.str, i64 0, i64 0), i32* nonnull %3)
  %8 = load i32, i32* %3, align 4, !tbaa !5
  %9 = zext i32 %8 to i64
  %10 = call i8* @llvm.stacksave()
  %11 = alloca i32, i64 %9, align 16
  %12 = load i32, i32* %3, align 4, !tbaa !5
  %13 = icmp sgt i32 %12, 0
  br i1 %13, label %18, label %49

14:                                               ; preds = %31
  %15 = icmp sgt i32 %32, 0
  br i1 %15, label %16, label %49

16:                                               ; preds = %14
  %17 = zext i32 %32 to i64
  br label %36

18:                                               ; preds = %0, %31
  %19 = phi i32 [ %33, %31 ], [ 0, %0 ]
  %20 = phi i32 [ %32, %31 ], [ 0, %0 ]
  %21 = call i32 (i8*, ...) @__isoc99_scanf(i8* getelementptr inbounds ([3 x i8], [3 x i8]* @.str, i64 0, i64 0), i32* nonnull %4)
  %22 = load i32, i32* %4, align 4, !tbaa !5
  %23 = sext i32 %22 to i64
  %24 = getelementptr inbounds [100 x i32], [100 x i32]* %1, i64 0, i64 %23
  %25 = load i32, i32* %24, align 4, !tbaa !5
  %26 = icmp eq i32 %25, 0
  br i1 %26, label %27, label %31

27:                                               ; preds = %18
  store i32 1, i32* %24, align 4, !tbaa !5
  %28 = sext i32 %20 to i64
  %29 = getelementptr inbounds i32, i32* %11, i64 %28
  store i32 %22, i32* %29, align 4, !tbaa !5
  %30 = add nsw i32 %20, 1
  br label %31

31:                                               ; preds = %18, %27
  %32 = phi i32 [ %30, %27 ], [ %20, %18 ]
  %33 = add nuw nsw i32 %19, 1
  %34 = load i32, i32* %3, align 4, !tbaa !5
  %35 = icmp slt i32 %33, %34
  br i1 %35, label %18, label %14, !llvm.loop !9

36:                                               ; preds = %16, %46
  %37 = phi i64 [ 0, %16 ], [ %47, %46 ]
  %38 = phi i32 [ 0, %16 ], [ %39, %46 ]
  %39 = add nuw nsw i32 %38, 1
  %40 = getelementptr inbounds i32, i32* %11, i64 %37
  %41 = load i32, i32* %40, align 4, !tbaa !5
  %42 = call i32 (i8*, ...) @printf(i8* nonnull dereferenceable(1) getelementptr inbounds ([3 x i8], [3 x i8]* @.str, i64 0, i64 0), i32 %41)
  %43 = icmp slt i32 %39, %32
  br i1 %43, label %44, label %46

44:                                               ; preds = %36
  %45 = call i32 @putchar(i32 32)
  br label %46

46:                                               ; preds = %36, %44
  %47 = add nuw nsw i64 %37, 1
  %48 = icmp eq i64 %47, %17
  br i1 %48, label %49, label %36, !llvm.loop !11

49:                                               ; preds = %46, %0, %14
  call void @llvm.stackrestore(i8* %10)
  call void @llvm.lifetime.end.p0i8(i64 4, i8* nonnull %6) #6
  call void @llvm.lifetime.end.p0i8(i64 4, i8* nonnull %5) #6
  call void @llvm.lifetime.end.p0i8(i64 400, i8* nonnull %2) #6
  ret i32 0
}

; Function Attrs: argmemonly mustprogress nofree nosync nounwind willreturn
declare void @llvm.lifetime.start.p0i8(i64 immarg, i8* nocapture) #1

; Function Attrs: nofree nounwind
declare noundef i32 @__isoc99_scanf(i8* nocapture noundef readonly, ...) local_unnamed_addr #2

; Function Attrs: mustprogress nofree nosync nounwind willreturn
declare i8* @llvm.stacksave() #3

; Function Attrs: nofree nounwind
declare noundef i32 @printf(i8* nocapture noundef readonly, ...) local_unnamed_addr #2

; Function Attrs: mustprogress nofree nosync nounwind willreturn
declare void @llvm.stackrestore(i8*) #3

; Function Attrs: argmemonly mustprogress nofree nosync nounwind willreturn
declare void @llvm.lifetime.end.p0i8(i64 immarg, i8* nocapture) #1

; Function Attrs: nofree nounwind
declare noundef i32 @putchar(i32 noundef) local_unnamed_addr #4

; Function Attrs: argmemonly nofree nounwind willreturn writeonly
declare void @llvm.memset.p0i8.i64(i8* nocapture writeonly, i8, i64, i1 immarg) #5


!llvm.module.flags = !{!0, !1, !2, !3}
!llvm.ident = !{!4}

!0 = !{i32 1, !"wchar_size", i32 4}
!1 = !{i32 7, !"PIC Level", i32 2}
!2 = !{i32 7, !"PIE Level", i32 2}
!3 = !{i32 7, !"uwtable", i32 1}
!4 = !{!"clang version 13.0.0"}
!5 = !{!6, !6, i64 0}
!6 = !{!"int", !7, i64 0}
!7 = !{!"omnipotent char", !8, i64 0}
!8 = !{!"Simple C/C++ TBAA"}
!9 = distinct !{!9, !10}
!10 = !{!"llvm.loop.mustprogress"}
!11 = distinct !{!11, !10}
